; Function Attrs: mustprogress uwtable
define noundef i32 @_ZNK32pxrInternal_v0_24__pxrReserved__12UsdAttribute14GetVariabilityEv(ptr noundef nonnull align 8 dereferenceable(32) %0) local_unnamed_addr #0 align 2 {
  %2 = getelementptr inbounds nuw i8, ptr %0, i64 8
  %3 = load ptr, ptr %2, align 8
  %.not.i.i = icmp eq ptr %3, null
  br i1 %.not.i.i, label %8, label %4

4:                                                ; preds = %1
  %5 = getelementptr inbounds nuw i8, ptr %3, i64 56
  %6 = load i64, ptr %5, align 8
  %7 = and i64 %6, 2048
  %.not5.i.i = icmp eq i64 %7, 0
  br i1 %.not5.i.i, label %_ZNK32pxrInternal_v0_24__pxrReserved__9UsdObject9_GetStageEv.exit, label %8

8:                                                ; preds = %4, %1
  tail call void @_ZN32pxrInternal_v0_24__pxrReserved__31Usd_ThrowExpiredPrimAccessErrorEPKNS_12Usd_PrimDataE(ptr noundef %3)
  br label %_ZNK32pxrInternal_v0_24__pxrReserved__9UsdObject9_GetStageEv.exit

_ZNK32pxrInternal_v0_24__pxrReserved__9UsdObject9_GetStageEv.exit: ; preds = %4, %8
  %9 = load ptr, ptr %3, align 8
  %10 = tail call noundef i32 @_ZNK32pxrInternal_v0_24__pxrReserved__8UsdStage15_GetVariabilityERKNS_11UsdPropertyE(ptr noundef nonnull align 8 dereferenceable(1282) %9, ptr noundef nonnull align 8 dereferenceable(32) %0)
  ret i32 %10
}